target datalayout = "e-m:e-p270:32:32-p271:32:32-p272:64:64-i64:64-i128:128-f80:128-n8:16:32:64-S128"
target triple = "x86_64-pc-linux-gnu"

%"class.LIEF::Object" = type { ptr }
%"struct.std::array.89" = type { [3 x i32] }
%"class.LIEF::MachO::BuildToolVersion" = type { %"class.LIEF::Object", i32, %"struct.std::array.89" }

; Function Attrs: mustprogress nounwind uwtable
define linkonce_odr hidden noundef ptr @_ZNSt14__array_traitsIjLm3EE6_S_ptrERA3_Kj(ptr noundef nonnull align 4 dereferenceable(12) %0) #0 comdat align 2 {
  %2 = alloca ptr, align 8
  store ptr %0, ptr %2, align 8
  %3 = load ptr, ptr %2, align 8
  %4 = getelementptr inbounds [3 x i32], ptr %3, i64 0, i64 0
  ret ptr %4
}

; Function Attrs: mustprogress nounwind uwtable
define linkonce_odr hidden noundef ptr @_ZNKSt5arrayIjLm3EE4dataEv(ptr noundef nonnull align 4 dereferenceable(12) %0) #0 comdat align 2 {
  %2 = alloca ptr, align 8
  store ptr %0, ptr %2, align 8
  %3 = load ptr, ptr %2, align 8
  %4 = getelementptr inbounds %"struct.std::array.89", ptr %3, i32 0, i32 0
  %5 = call noundef ptr @_ZNSt14__array_traitsIjLm3EE6_S_ptrERA3_Kj(ptr noundef nonnull align 4 dereferenceable(12) %4) #8
  ret ptr %5
}

; Function Attrs: mustprogress nounwind uwtable
define linkonce_odr hidden noundef ptr @_ZNKSt5arrayIjLm3EE3endEv(ptr noundef nonnull align 4 dereferenceable(12) %0) #0 comdat align 2 {
  %2 = alloca ptr, align 8
  store ptr %0, ptr %2, align 8
  %3 = load ptr, ptr %2, align 8
  %4 = call noundef ptr @_ZNKSt5arrayIjLm3EE4dataEv(ptr noundef nonnull align 4 dereferenceable(12) %3) #8
  %5 = getelementptr inbounds i32, ptr %4, i64 3
  ret ptr %5
}

; Function Attrs: mustprogress nounwind uwtable
define linkonce_odr hidden noundef ptr @_ZNKSt5arrayIjLm3EE5beginEv(ptr noundef nonnull align 4 dereferenceable(12) %0) #0 comdat align 2 {
  %2 = alloca ptr, align 8
  store ptr %0, ptr %2, align 8
  %3 = load ptr, ptr %2, align 8
  %4 = call noundef ptr @_ZNKSt5arrayIjLm3EE4dataEv(ptr noundef nonnull align 4 dereferenceable(12) %3) #8
  ret ptr %4
}

; Function Attrs: mustprogress uwtable
define linkonce_odr hidden noundef nonnull align 8 dereferenceable(64) ptr @_ZN4LIEF4Hash7processIPKjEERS0_T_S5_(ptr noundef nonnull align 8 dereferenceable(64) %0, ptr noundef %1, ptr noundef %2) #3 comdat align 2 {
  %4 = alloca ptr, align 8
  %5 = alloca ptr, align 8
  %6 = alloca ptr, align 8
  %7 = alloca ptr, align 8
  store ptr %0, ptr %4, align 8
  store ptr %1, ptr %5, align 8
  store ptr %2, ptr %6, align 8
  %8 = load ptr, ptr %4, align 8
  store ptr %5, ptr %7, align 8
  br label %9

9:                                                ; preds = %23, %3
  %10 = load ptr, ptr %7, align 8
  %11 = load ptr, ptr %10, align 8
  %12 = load ptr, ptr %6, align 8
  %13 = icmp ne ptr %11, %12
  br i1 %13, label %14, label %27

14:                                               ; preds = %9
  %15 = load ptr, ptr %7, align 8
  %16 = load ptr, ptr %15, align 8
  %17 = load i32, ptr %16, align 4
  %18 = zext i32 %17 to i64
  %19 = load ptr, ptr %8, align 8
  %20 = getelementptr inbounds ptr, ptr %19, i64 166
  %21 = load ptr, ptr %20, align 8
  %22 = call noundef nonnull align 8 dereferenceable(64) ptr %21(ptr noundef nonnull align 8 dereferenceable(64) %8, i64 noundef %18)
  br label %23

23:                                               ; preds = %14
  %24 = load ptr, ptr %7, align 8
  %25 = load ptr, ptr %24, align 8
  %26 = getelementptr inbounds i32, ptr %25, i32 1
  store ptr %26, ptr %24, align 8
  br label %9, !llvm.loop !14

27:                                               ; preds = %9
  ret ptr %8
}

; Function Attrs: mustprogress nounwind uwtable
define linkonce_odr noundef ptr @_ZSt3endISt5arrayIjLm3EEEDTcldtfp_3endEERKT_(ptr noundef nonnull align 4 dereferenceable(12) %0) #0 comdat {
  %2 = alloca ptr, align 8
  store ptr %0, ptr %2, align 8
  %3 = load ptr, ptr %2, align 8
  %4 = call noundef ptr @_ZNKSt5arrayIjLm3EE3endEv(ptr noundef nonnull align 4 dereferenceable(12) %3) #8
  ret ptr %4
}

; Function Attrs: mustprogress nounwind uwtable
define linkonce_odr noundef ptr @_ZSt5beginISt5arrayIjLm3EEEDTcldtfp_5beginEERKT_(ptr noundef nonnull align 4 dereferenceable(12) %0) #0 comdat {
  %2 = alloca ptr, align 8
  store ptr %0, ptr %2, align 8
  %3 = load ptr, ptr %2, align 8
  %4 = call noundef ptr @_ZNKSt5arrayIjLm3EE5beginEv(ptr noundef nonnull align 4 dereferenceable(12) %3) #8
  ret ptr %4
}

; Function Attrs: mustprogress uwtable
define linkonce_odr hidden noundef nonnull align 8 dereferenceable(64) ptr @_ZN4LIEF4Hash7processIjLm3EEERS0_RKSt5arrayIT_XT0_EE(ptr noundef nonnull align 8 dereferenceable(64) %0, ptr noundef nonnull align 4 dereferenceable(12) %1) #3 comdat align 2 {
  %3 = alloca ptr, align 8
  %4 = alloca ptr, align 8
  store ptr %0, ptr %3, align 8
  store ptr %1, ptr %4, align 8
  %5 = load ptr, ptr %3, align 8
  %6 = load ptr, ptr %4, align 8
  %7 = call noundef ptr @_ZSt5beginISt5arrayIjLm3EEEDTcldtfp_5beginEERKT_(ptr noundef nonnull align 4 dereferenceable(12) %6)
  %8 = load ptr, ptr %4, align 8
  %9 = call noundef ptr @_ZSt3endISt5arrayIjLm3EEEDTcldtfp_3endEERKT_(ptr noundef nonnull align 4 dereferenceable(12) %8)
  %10 = call noundef nonnull align 8 dereferenceable(64) ptr @_ZN4LIEF4Hash7processIPKjEERS0_T_S5_(ptr noundef nonnull align 8 dereferenceable(64) %5, ptr noundef %7, ptr noundef %9)
  ret ptr %5
}

; Function Attrs: mustprogress nounwind uwtable
define linkonce_odr hidden { i64, i32 } @_ZNK4LIEF5MachO16BuildToolVersion7versionEv(ptr noundef nonnull align 8 dereferenceable(24) %0) #0 comdat align 2 {
  %2 = alloca %"struct.std::array.89", align 4
  %3 = alloca ptr, align 8
  %4 = alloca { i64, i32 }, align 8
  store ptr %0, ptr %3, align 8
  %5 = load ptr, ptr %3, align 8
  %6 = getelementptr inbounds %"class.LIEF::MachO::BuildToolVersion", ptr %5, i32 0, i32 2
  call void @llvm.memcpy.p0.p0.i64(ptr align 4 %2, ptr align 4 %6, i64 12, i1 false)
  %7 = getelementptr inbounds %"struct.std::array.89", ptr %2, i32 0, i32 0
  call void @llvm.memcpy.p0.p0.i64(ptr align 8 %4, ptr align 4 %7, i64 12, i1 false)
  %8 = load { i64, i32 }, ptr %4, align 8
  ret { i64, i32 } %8
}

; Function Attrs: mustprogress uwtable
define linkonce_odr hidden noundef nonnull align 8 dereferenceable(64) ptr @_ZN4LIEF4Hash7processINS_5MachO16BuildToolVersion5TOOLSEvEERS0_T_(ptr noundef nonnull align 8 dereferenceable(64) %0, i32 noundef %1) #3 comdat align 2 {
  %3 = alloca ptr, align 8
  %4 = alloca i32, align 4
  store ptr %0, ptr %3, align 8
  store i32 %1, ptr %4, align 4
  %5 = load ptr, ptr %3, align 8
  %6 = load i32, ptr %4, align 4
  %7 = sext i32 %6 to i64
  %8 = load ptr, ptr %5, align 8
  %9 = getelementptr inbounds ptr, ptr %8, i64 166
  %10 = load ptr, ptr %9, align 8
  %11 = call noundef nonnull align 8 dereferenceable(64) ptr %10(ptr noundef nonnull align 8 dereferenceable(64) %5, i64 noundef %7)
  ret ptr %11
}

; Function Attrs: mustprogress nounwind uwtable
define linkonce_odr hidden noundef i32 @_ZNK4LIEF5MachO16BuildToolVersion4toolEv(ptr noundef nonnull align 8 dereferenceable(24) %0) #0 comdat align 2 {
  %2 = alloca ptr, align 8
  store ptr %0, ptr %2, align 8
  %3 = load ptr, ptr %2, align 8
  %4 = getelementptr inbounds %"class.LIEF::MachO::BuildToolVersion", ptr %3, i32 0, i32 1
  %5 = load i32, ptr %4, align 8
  ret i32 %5
}

; Function Attrs: mustprogress uwtable
define void @_ZN4LIEF5MachO4Hash5visitERKNS0_16BuildToolVersionE(ptr noundef nonnull align 8 dereferenceable(64) %0, ptr noundef nonnull align 8 dereferenceable(24) %1) unnamed_addr #3 align 2 {
  %3 = alloca ptr, align 8
  %4 = alloca ptr, align 8
  %5 = alloca %"struct.std::array.89", align 4
  %6 = alloca { i64, i32 }, align 8
  store ptr %0, ptr %3, align 8
  store ptr %1, ptr %4, align 8
  %7 = load ptr, ptr %3, align 8
  %8 = load ptr, ptr %4, align 8
  %9 = call noundef i32 @_ZNK4LIEF5MachO16BuildToolVersion4toolEv(ptr noundef nonnull align 8 dereferenceable(24) %8)
  %10 = call noundef nonnull align 8 dereferenceable(64) ptr @_ZN4LIEF4Hash7processINS_5MachO16BuildToolVersion5TOOLSEvEERS0_T_(ptr noundef nonnull align 8 dereferenceable(64) %7, i32 noundef %9)
  %11 = load ptr, ptr %4, align 8
  %12 = call { i64, i32 } @_ZNK4LIEF5MachO16BuildToolVersion7versionEv(ptr noundef nonnull align 8 dereferenceable(24) %11)
  %13 = getelementptr inbounds %"struct.std::array.89", ptr %5, i32 0, i32 0
  store { i64, i32 } %12, ptr %6, align 8
  call void @llvm.memcpy.p0.p0.i64(ptr align 4 %13, ptr align 8 %6, i64 12, i1 false)
  %14 = call noundef nonnull align 8 dereferenceable(64) ptr @_ZN4LIEF4Hash7processIjLm3EEERS0_RKSt5arrayIT_XT0_EE(ptr noundef nonnull align 8 dereferenceable(64) %7, ptr noundef nonnull align 4 dereferenceable(12) %5)
  ret void
}