; Function Attrs: mustprogress uwtable
define void @_ZN4LIEF5MachO4Hash5visitERKNS0_16BuildToolVersionE(ptr noundef nonnull align 8 dereferenceable(64) %0, ptr nocapture noundef nonnull readonly align 8 dereferenceable(24) %1) unnamed_addr #3 align 2 {
  %3 = alloca %"struct.std::array.89", align 8
  %4 = getelementptr inbounds i8, ptr %1, i64 8
  %5 = load i32, ptr %4, align 8
  %6 = sext i32 %5 to i64
  %7 = load ptr, ptr %0, align 8
  %8 = getelementptr inbounds i8, ptr %7, i64 1328
  %9 = load ptr, ptr %8, align 8
  %10 = tail call noundef nonnull align 8 dereferenceable(64) ptr %9(ptr noundef nonnull align 8 dereferenceable(64) %0, i64 noundef %6)
  %11 = getelementptr inbounds i8, ptr %1, i64 12
  %.sroa.01.0.copyload.i = load i64, ptr %11, align 4
  %.sroa.22.0..sroa_idx.i = getelementptr inbounds i8, ptr %1, i64 20
  %.sroa.22.0.copyload.i = load i32, ptr %.sroa.22.0..sroa_idx.i, align 4
  store i64 %.sroa.01.0.copyload.i, ptr %3, align 8
  %.sroa.2.0..sroa_idx = getelementptr inbounds i8, ptr %3, i64 8
  store i32 %.sroa.22.0.copyload.i, ptr %.sroa.2.0..sroa_idx, align 8
  br label %.lr.ph.i.i

.lr.ph.i.i:                                       ; preds = %.lr.ph.i.i, %2
  %.08.i.idx.i = phi i64 [ %.08.i.add.i, %.lr.ph.i.i ], [ 0, %2 ]
  %.08.i.ptr.i = getelementptr inbounds i8, ptr %3, i64 %.08.i.idx.i
  %12 = load i32, ptr %.08.i.ptr.i, align 4
  %13 = zext i32 %12 to i64
  %14 = load ptr, ptr %0, align 8
  %15 = getelementptr inbounds i8, ptr %14, i64 1328
  %16 = load ptr, ptr %15, align 8
  %17 = tail call noundef nonnull align 8 dereferenceable(64) ptr %16(ptr noundef nonnull align 8 dereferenceable(64) %0, i64 noundef %13)
  %.08.i.add.i = add nuw nsw i64 %.08.i.idx.i, 4
  %.not.i.i = icmp eq i64 %.08.i.add.i, 12
  br i1 %.not.i.i, label %_ZN4LIEF4Hash7processIjLm3EEERS0_RKSt5arrayIT_XT0_EE.exit, label %.lr.ph.i.i, !llvm.loop !63

_ZN4LIEF4Hash7processIjLm3EEERS0_RKSt5arrayIT_XT0_EE.exit: ; preds = %.lr.ph.i.i
  ret void
}